target datalayout = "e-m:e-p270:32:32-p271:32:32-p272:64:64-i64:64-i128:128-f80:128-n8:16:32:64-S128"
target triple = "x86_64-pc-linux-gnu"

@.str = private unnamed_addr constant [34 x i8] c"../openssl/crypto/evp/pmeth_lib.c\00", align 1
@app_pkey_methods = internal global ptr null, align 8
@__func__.EVP_PKEY_meth_add0 = private unnamed_addr constant [19 x i8] c"EVP_PKEY_meth_add0\00", align 1

; Function Attrs: inlinehint nounwind uwtable
define internal void @sk_EVP_PKEY_METHOD_sort(ptr noundef %0) #5 {
  %2 = alloca ptr, align 8
  store ptr %0, ptr %2, align 8, !tbaa !13
  %3 = load ptr, ptr %2, align 8, !tbaa !13
  call void @OPENSSL_sk_sort(ptr noundef %3)
  ret void
}

; Function Attrs: inlinehint nounwind uwtable
define internal i32 @sk_EVP_PKEY_METHOD_push(ptr noundef %0, ptr noundef %1) #5 {
  %3 = alloca ptr, align 8
  %4 = alloca ptr, align 8
  store ptr %0, ptr %3, align 8, !tbaa !13
  store ptr %1, ptr %4, align 8, !tbaa !7
  %5 = load ptr, ptr %3, align 8, !tbaa !13
  %6 = load ptr, ptr %4, align 8, !tbaa !7
  %7 = call i32 @OPENSSL_sk_push(ptr noundef %5, ptr noundef %6)
  ret i32 %7
}

; Function Attrs: inlinehint nounwind uwtable
define internal ptr @sk_EVP_PKEY_METHOD_new(ptr noundef %0) #5 {
  %2 = alloca ptr, align 8
  store ptr %0, ptr %2, align 8, !tbaa !12
  %3 = load ptr, ptr %2, align 8, !tbaa !12
  %4 = call ptr @OPENSSL_sk_new(ptr noundef %3)
  ret ptr %4
}

; Function Attrs: nounwind uwtable
define i32 @EVP_PKEY_meth_add0(ptr noundef %0) #0 {
  %2 = alloca i32, align 4
  %3 = alloca ptr, align 8
  store ptr %0, ptr %3, align 8, !tbaa !7
  %4 = load ptr, ptr @app_pkey_methods, align 8, !tbaa !13
  %5 = icmp eq ptr %4, null
  br i1 %5, label %6, label %12

6:                                                ; preds = %1
  %7 = call ptr @sk_EVP_PKEY_METHOD_new(ptr noundef @pmeth_cmp)
  store ptr %7, ptr @app_pkey_methods, align 8, !tbaa !13
  %8 = load ptr, ptr @app_pkey_methods, align 8, !tbaa !13
  %9 = icmp eq ptr %8, null
  br i1 %9, label %10, label %11

10:                                               ; preds = %6
  call void @ERR_new()
  call void @ERR_set_debug(ptr noundef @.str, i32 noundef 605, ptr noundef @__func__.EVP_PKEY_meth_add0)
  call void (i32, i32, ptr, ...) @ERR_set_error(i32 noundef 6, i32 noundef 524303, ptr noundef null)
  store i32 0, ptr %2, align 4
  br label %20

11:                                               ; preds = %6
  br label %12

12:                                               ; preds = %11, %1
  %13 = load ptr, ptr @app_pkey_methods, align 8, !tbaa !13
  %14 = load ptr, ptr %3, align 8, !tbaa !7
  %15 = call i32 @sk_EVP_PKEY_METHOD_push(ptr noundef %13, ptr noundef %14)
  %16 = icmp ne i32 %15, 0
  br i1 %16, label %18, label %17

17:                                               ; preds = %12
  call void @ERR_new()
  call void @ERR_set_debug(ptr noundef @.str, i32 noundef 610, ptr noundef @__func__.EVP_PKEY_meth_add0)
  call void (i32, i32, ptr, ...) @ERR_set_error(i32 noundef 6, i32 noundef 524303, ptr noundef null)
  store i32 0, ptr %2, align 4
  br label %20

18:                                               ; preds = %12
  %19 = load ptr, ptr @app_pkey_methods, align 8, !tbaa !13
  call void @sk_EVP_PKEY_METHOD_sort(ptr noundef %19)
  store i32 1, ptr %2, align 4
  br label %20

20:                                               ; preds = %18, %17, %10
  %21 = load i32, ptr %2, align 4
  ret i32 %21
}