; Function Attrs: nounwind uwtable
define range(i32 0, 2) i32 @EVP_PKEY_meth_add0(ptr noundef %0) local_unnamed_addr #0 {
  %2 = load ptr, ptr @app_pkey_methods, align 8, !tbaa !3
  %3 = icmp eq ptr %2, null
  br i1 %3, label %4, label %8

4:                                                ; preds = %1
  %5 = tail call ptr @OPENSSL_sk_new(ptr noundef nonnull @pmeth_cmp) #10
  store ptr %5, ptr @app_pkey_methods, align 8, !tbaa !3
  %6 = icmp eq ptr %5, null
  br i1 %6, label %7, label %8

7:                                                ; preds = %4
  tail call void @ERR_new() #10
  tail call void @ERR_set_debug(ptr noundef nonnull @.str, i32 noundef 605, ptr noundef nonnull @__func__.EVP_PKEY_meth_add0) #10
  tail call void (i32, i32, ptr, ...) @ERR_set_error(i32 noundef 6, i32 noundef 524303, ptr noundef null) #10
  br label %14

8:                                                ; preds = %4, %1
  %9 = phi ptr [ %5, %4 ], [ %2, %1 ]
  %10 = tail call i32 @OPENSSL_sk_push(ptr noundef nonnull %9, ptr noundef %0) #10
  %.not = icmp eq i32 %10, 0
  br i1 %.not, label %11, label %12

11:                                               ; preds = %8
  tail call void @ERR_new() #10
  tail call void @ERR_set_debug(ptr noundef nonnull @.str, i32 noundef 610, ptr noundef nonnull @__func__.EVP_PKEY_meth_add0) #10
  tail call void (i32, i32, ptr, ...) @ERR_set_error(i32 noundef 6, i32 noundef 524303, ptr noundef null) #10
  br label %14

12:                                               ; preds = %8
  %13 = load ptr, ptr @app_pkey_methods, align 8, !tbaa !3
  tail call void @OPENSSL_sk_sort(ptr noundef %13) #10
  br label %14

14:                                               ; preds = %12, %11, %7
  %.0 = phi i32 [ 0, %7 ], [ 1, %12 ], [ 0, %11 ]
  ret i32 %.0
}